; Function Attrs: mustprogress uwtable
define noundef signext i8 @_ZNK6icu_7516CollationBuilder12ignoreStringERKNS_13UnicodeStringER10UErrorCode(ptr nocapture noundef nonnull readonly align 8 dereferenceable(616) %this, ptr noundef nonnull align 8 dereferenceable(64) %s, ptr noundef nonnull align 4 dereferenceable(4) %errorCode) local_unnamed_addr #0 align 2 {
entry:
  %0 = load i32, ptr %errorCode, align 4
  %cmp.i.i = icmp sgt i32 %0, 0
  br i1 %cmp.i.i, label %lor.end, label %_ZNK6icu_7516CollationBuilder5isFCDERKNS_13UnicodeStringER10UErrorCode.exit

_ZNK6icu_7516CollationBuilder5isFCDERKNS_13UnicodeStringER10UErrorCode.exit: ; preds = %entry
  %fcd.i = getelementptr inbounds i8, ptr %this, i64 16
  %1 = load ptr, ptr %fcd.i, align 8
  %vtable.i = load ptr, ptr %1, align 8
  %vfn.i = getelementptr inbounds i8, ptr %vtable.i, i64 88
  %2 = load ptr, ptr %vfn.i, align 8
  %call2.i = tail call noundef signext i8 %2(ptr noundef nonnull align 8 dereferenceable(8) %1, ptr noundef nonnull align 8 dereferenceable(64) %s, ptr noundef nonnull align 4 dereferenceable(4) %errorCode)
  %tobool3.i.not = icmp eq i8 %call2.i, 0
  br i1 %tobool3.i.not, label %lor.end, label %lor.rhs

lor.rhs:                                          ; preds = %_ZNK6icu_7516CollationBuilder5isFCDERKNS_13UnicodeStringER10UErrorCode.exit
  %fUnion.i.i.i.i = getelementptr inbounds i8, ptr %s, i64 8
  %3 = load i16, ptr %fUnion.i.i.i.i, align 8
  %cmp.i.i.i.i = icmp slt i16 %3, 0
  %4 = ashr i16 %3, 5
  %shr.i.i.i.i = sext i16 %4 to i32
  %fLength.i.i.i = getelementptr inbounds i8, ptr %s, i64 12
  %5 = load i32, ptr %fLength.i.i.i, align 4
  %cond.i.i.i = select i1 %cmp.i.i.i.i, i32 %5, i32 %shr.i.i.i.i
  %cmp.i.i2.not = icmp eq i32 %cond.i.i.i, 0
  br i1 %cmp.i.i2.not, label %lor.end, label %if.then.i.i

if.then.i.i:                                      ; preds = %lor.rhs
  %6 = and i16 %3, 2
  %tobool.not.i.i.i = icmp eq i16 %6, 0
  %fBuffer.i.i.i = getelementptr inbounds i8, ptr %s, i64 10
  %fArray.i.i.i = getelementptr inbounds i8, ptr %s, i64 24
  %7 = load ptr, ptr %fArray.i.i.i, align 8
  %cond.i2.i.i = select i1 %tobool.not.i.i.i, ptr %7, ptr %fBuffer.i.i.i
  %8 = load i16, ptr %cond.i2.i.i, align 2
  %9 = zext i16 %8 to i32
  %10 = add nsw i32 %9, -44032
  %11 = icmp ult i32 %10, 11172
  %12 = zext i1 %11 to i8
  br label %lor.end

lor.end:                                          ; preds = %if.then.i.i, %lor.rhs, %entry, %_ZNK6icu_7516CollationBuilder5isFCDERKNS_13UnicodeStringER10UErrorCode.exit
  %conv5 = phi i8 [ 1, %_ZNK6icu_7516CollationBuilder5isFCDERKNS_13UnicodeStringER10UErrorCode.exit ], [ 1, %entry ], [ %12, %if.then.i.i ], [ 0, %lor.rhs ]
  ret i8 %conv5
}